target datalayout = "e-m:e-p270:32:32-p271:32:32-p272:64:64-i64:64-i128:128-f80:128-n8:16:32:64-S128"
target triple = "x86_64-pc-linux-gnu"

%struct.sct_st = type { i32, ptr, i64, ptr, i64, i64, ptr, i64, i8, i8, ptr, i64, i32, i32, i32 }

@.str = private unnamed_addr constant [30 x i8] c"../openssl/crypto/ct/ct_sct.c\00", align 1

; Function Attrs: nounwind uwtable
define void @SCT_set0_extensions(ptr noundef %0, ptr noundef %1, i64 noundef %2) #0 {
  %4 = alloca ptr, align 8
  %5 = alloca ptr, align 8
  %6 = alloca i64, align 8
  store ptr %0, ptr %4, align 8, !tbaa !3
  store ptr %1, ptr %5, align 8, !tbaa !23
  store i64 %2, ptr %6, align 8, !tbaa !24
  %7 = load ptr, ptr %4, align 8, !tbaa !3
  %8 = getelementptr inbounds nuw %struct.sct_st, ptr %7, i32 0, i32 6
  %9 = load ptr, ptr %8, align 8, !tbaa !15
  call void @CRYPTO_free(ptr noundef %9, ptr noundef @.str, i32 noundef 141)
  %10 = load ptr, ptr %5, align 8, !tbaa !23
  %11 = load ptr, ptr %4, align 8, !tbaa !3
  %12 = getelementptr inbounds nuw %struct.sct_st, ptr %11, i32 0, i32 6
  store ptr %10, ptr %12, align 8, !tbaa !15
  %13 = load i64, ptr %6, align 8, !tbaa !24
  %14 = load ptr, ptr %4, align 8, !tbaa !3
  %15 = getelementptr inbounds nuw %struct.sct_st, ptr %14, i32 0, i32 7
  store i64 %13, ptr %15, align 8, !tbaa !29
  %16 = load ptr, ptr %4, align 8, !tbaa !3
  %17 = getelementptr inbounds nuw %struct.sct_st, ptr %16, i32 0, i32 14
  store i32 0, ptr %17, align 8, !tbaa !22
  ret void
}