; Function Attrs: nounwind uwtable
define void @SCT_set0_extensions(ptr noundef captures(none) initializes((56, 64), (96, 100)) %0, ptr noundef %1, i64 noundef %2) local_unnamed_addr #0 {
  %4 = getelementptr inbounds nuw i8, ptr %0, i64 48
  %5 = load ptr, ptr %4, align 8, !tbaa !13
  tail call void @CRYPTO_free(ptr noundef %5, ptr noundef nonnull @.str, i32 noundef 141) #7
  store ptr %1, ptr %4, align 8, !tbaa !13
  %6 = getelementptr inbounds nuw i8, ptr %0, i64 56
  store i64 %2, ptr %6, align 8, !tbaa !21
  %7 = getelementptr inbounds nuw i8, ptr %0, i64 96
  store i32 0, ptr %7, align 8, !tbaa !16
  ret void
}